target datalayout = "e-m:e-p270:32:32-p271:32:32-p272:64:64-i64:64-i128:128-f80:128-n8:16:32:64-S128"
target triple = "x86_64-pc-linux-gnu"

%struct.darktable_t = type { %struct.dt_codepath_t, i32, i32, ptr, ptr, ptr, ptr, ptr, ptr, ptr, ptr, ptr, ptr, ptr, ptr, ptr, ptr, ptr, ptr, ptr, ptr, ptr, ptr, ptr, ptr, ptr, ptr, ptr, ptr, ptr, [64 x %struct.dt_pthread_mutex_t], %struct.dt_pthread_mutex_t, %struct.dt_pthread_mutex_t, %struct.dt_pthread_mutex_t, %struct.dt_pthread_mutex_t, %struct.dt_pthread_mutex_t, ptr, ptr, ptr, ptr, ptr, ptr, ptr, ptr, ptr, ptr, ptr, ptr, ptr, %struct.dt_lua_state_t, ptr, double, ptr, i32, [47 x i32], i32, i32, ptr, ptr, %struct.dt_sys_resources_t, %struct.dt_backthumb_t, %struct.dt_gimp_t }
%struct.dt_codepath_t = type { i8, [3 x i8] }
%struct.dt_pthread_mutex_t = type { %union.pthread_mutex_t }
%union.pthread_mutex_t = type { %struct.__pthread_mutex_s }
%struct.__pthread_mutex_s = type { i32, i32, i32, i32, i32, i16, i16, %struct.__pthread_internal_list }
%struct.__pthread_internal_list = type { ptr, ptr }
%struct.dt_lua_state_t = type { i32 }
%struct.dt_sys_resources_t = type { i64, i64, ptr, ptr, i32 }
%struct.dt_backthumb_t = type { double, double, i32, i32, i32, i32 }
%struct.dt_gimp_t = type { i32, ptr, ptr, i32, i32 }
%struct.backend_kwallet_context_t = type { ptr, ptr, ptr }
%struct._GError = type { i32, i32, ptr }

@darktable = external global %struct.darktable_t, align 8
@kwallet_folder = internal global ptr @.str.31, align 8
@app_id = internal global ptr @.str.32, align 8
@.str.11 = private unnamed_addr constant [63 x i8] c"[pwstorage_kwallet] ERROR: failed to complete kwallet call: %s\00", align 1
@.str.26 = private unnamed_addr constant [5 x i8] c"open\00", align 1
@.str.27 = private unnamed_addr constant [6 x i8] c"(sxs)\00", align 1
@.str.28 = private unnamed_addr constant [10 x i8] c"hasFolder\00", align 1
@.str.29 = private unnamed_addr constant [6 x i8] c"(iss)\00", align 1
@.str.30 = private unnamed_addr constant [13 x i8] c"createFolder\00", align 1

; Function Attrs: nounwind uwtable
define internal i32 @check_error(ptr noundef %0) #0 {
  %2 = alloca i32, align 4
  %3 = alloca ptr, align 8
  store ptr %0, ptr %3, align 8, !tbaa !11
  %4 = load ptr, ptr %3, align 8, !tbaa !11
  %5 = icmp ne ptr %4, null
  br i1 %5, label %6, label %23

6:                                                ; preds = %1
  br label %7

7:                                                ; preds = %6
  %8 = load i32, ptr getelementptr inbounds nuw (%struct.darktable_t, ptr @darktable, i32 0, i32 2), align 8, !tbaa !18
  %9 = and i32 64, %8
  %10 = icmp ne i32 %9, 0
  br i1 %10, label %11, label %20

11:                                               ; preds = %7
  %12 = load i32, ptr getelementptr inbounds nuw (%struct.darktable_t, ptr @darktable, i32 0, i32 2), align 8, !tbaa !18
  %13 = xor i32 %12, -1
  %14 = and i32 0, %13
  %15 = icmp ne i32 %14, 0
  br i1 %15, label %20, label %16

16:                                               ; preds = %11
  %17 = load ptr, ptr %3, align 8, !tbaa !11
  %18 = getelementptr inbounds nuw %struct._GError, ptr %17, i32 0, i32 2
  %19 = load ptr, ptr %18, align 8, !tbaa !56
  call void (ptr, ...) @dt_print_ext(ptr noundef @.str.11, ptr noundef %19)
  br label %20

20:                                               ; preds = %16, %11, %7
  br label %21

21:                                               ; preds = %20
  %22 = load ptr, ptr %3, align 8, !tbaa !11
  call void @g_error_free(ptr noundef %22)
  store i32 1, ptr %2, align 4
  br label %24

23:                                               ; preds = %1
  store i32 0, ptr %2, align 4
  br label %24

24:                                               ; preds = %23, %21
  %25 = load i32, ptr %2, align 4
  ret i32 %25
}

; Function Attrs: nounwind uwtable
define internal i32 @get_wallet_handle(ptr noundef %0) #0 {
  %2 = alloca i32, align 4
  %3 = alloca ptr, align 8
  %4 = alloca i32, align 4
  %5 = alloca ptr, align 8
  %6 = alloca ptr, align 8
  %7 = alloca i32, align 4
  %8 = alloca ptr, align 8
  %9 = alloca i32, align 4
  %10 = alloca i32, align 4
  store ptr %0, ptr %3, align 8, !tbaa !6
  call void @llvm.lifetime.start.p0(i64 4, ptr %4) #8
  store i32 -1, ptr %4, align 4, !tbaa !62
  call void @llvm.lifetime.start.p0(i64 8, ptr %5) #8
  store ptr null, ptr %5, align 8, !tbaa !11
  call void @llvm.lifetime.start.p0(i64 8, ptr %6) #8
  %11 = load ptr, ptr %3, align 8, !tbaa !6
  %12 = getelementptr inbounds nuw %struct.backend_kwallet_context_t, ptr %11, i32 0, i32 1
  %13 = load ptr, ptr %12, align 8, !tbaa !58
  %14 = load ptr, ptr %3, align 8, !tbaa !6
  %15 = getelementptr inbounds nuw %struct.backend_kwallet_context_t, ptr %14, i32 0, i32 2
  %16 = load ptr, ptr %15, align 8, !tbaa !63
  %17 = load ptr, ptr @app_id, align 8, !tbaa !59
  %18 = call ptr (ptr, ...) @g_variant_new(ptr noundef @.str.27, ptr noundef %16, i64 noundef 0, ptr noundef %17)
  %19 = call ptr @g_dbus_proxy_call_sync(ptr noundef %13, ptr noundef @.str.26, ptr noundef %18, i32 noundef 0, i32 noundef -1, ptr noundef null, ptr noundef %5)
  store ptr %19, ptr %6, align 8, !tbaa !60
  %20 = load ptr, ptr %5, align 8, !tbaa !11
  %21 = call i32 @check_error(ptr noundef %20)
  %22 = icmp ne i32 %21, 0
  br i1 %22, label %23, label %25

23:                                               ; preds = %1
  %24 = load ptr, ptr %6, align 8, !tbaa !60
  call void @g_variant_unref(ptr noundef %24)
  store i32 -1, ptr %2, align 4
  store i32 1, ptr %7, align 4
  br label %85

25:                                               ; preds = %1
  call void @llvm.lifetime.start.p0(i64 8, ptr %8) #8
  %26 = load ptr, ptr %6, align 8, !tbaa !60
  %27 = call ptr @g_variant_get_child_value(ptr noundef %26, i64 noundef 0)
  store ptr %27, ptr %8, align 8, !tbaa !60
  %28 = load ptr, ptr %8, align 8, !tbaa !60
  %29 = call i32 @g_variant_get_int32(ptr noundef %28)
  store i32 %29, ptr %4, align 4, !tbaa !62
  %30 = load ptr, ptr %8, align 8, !tbaa !60
  call void @g_variant_unref(ptr noundef %30)
  %31 = load ptr, ptr %6, align 8, !tbaa !60
  call void @g_variant_unref(ptr noundef %31)
  call void @llvm.lifetime.start.p0(i64 4, ptr %9) #8
  store i32 0, ptr %9, align 4, !tbaa !62
  %32 = load ptr, ptr %3, align 8, !tbaa !6
  %33 = getelementptr inbounds nuw %struct.backend_kwallet_context_t, ptr %32, i32 0, i32 1
  %34 = load ptr, ptr %33, align 8, !tbaa !58
  %35 = load i32, ptr %4, align 4, !tbaa !62
  %36 = load ptr, ptr @kwallet_folder, align 8, !tbaa !59
  %37 = load ptr, ptr @app_id, align 8, !tbaa !59
  %38 = call ptr (ptr, ...) @g_variant_new(ptr noundef @.str.29, i32 noundef %35, ptr noundef %36, ptr noundef %37)
  %39 = call ptr @g_dbus_proxy_call_sync(ptr noundef %34, ptr noundef @.str.28, ptr noundef %38, i32 noundef 0, i32 noundef -1, ptr noundef null, ptr noundef %5)
  store ptr %39, ptr %6, align 8, !tbaa !60
  %40 = load ptr, ptr %5, align 8, !tbaa !11
  %41 = call i32 @check_error(ptr noundef %40)
  %42 = icmp ne i32 %41, 0
  br i1 %42, label %43, label %45

43:                                               ; preds = %25
  %44 = load ptr, ptr %6, align 8, !tbaa !60
  call void @g_variant_unref(ptr noundef %44)
  store i32 -1, ptr %2, align 4
  store i32 1, ptr %7, align 4
  br label %84

45:                                               ; preds = %25
  %46 = load ptr, ptr %6, align 8, !tbaa !60
  %47 = call ptr @g_variant_get_child_value(ptr noundef %46, i64 noundef 0)
  store ptr %47, ptr %8, align 8, !tbaa !60
  %48 = load ptr, ptr %8, align 8, !tbaa !60
  %49 = call i32 @g_variant_get_boolean(ptr noundef %48)
  store i32 %49, ptr %9, align 4, !tbaa !62
  %50 = load ptr, ptr %8, align 8, !tbaa !60
  call void @g_variant_unref(ptr noundef %50)
  %51 = load ptr, ptr %6, align 8, !tbaa !60
  call void @g_variant_unref(ptr noundef %51)
  %52 = load i32, ptr %9, align 4, !tbaa !62
  %53 = icmp ne i32 %52, 0
  br i1 %53, label %82, label %54

54:                                               ; preds = %45
  call void @llvm.lifetime.start.p0(i64 4, ptr %10) #8
  store i32 0, ptr %10, align 4, !tbaa !62
  %55 = load ptr, ptr %3, align 8, !tbaa !6
  %56 = getelementptr inbounds nuw %struct.backend_kwallet_context_t, ptr %55, i32 0, i32 1
  %57 = load ptr, ptr %56, align 8, !tbaa !58
  %58 = load i32, ptr %4, align 4, !tbaa !62
  %59 = load ptr, ptr @kwallet_folder, align 8, !tbaa !59
  %60 = load ptr, ptr @app_id, align 8, !tbaa !59
  %61 = call ptr (ptr, ...) @g_variant_new(ptr noundef @.str.29, i32 noundef %58, ptr noundef %59, ptr noundef %60)
  %62 = call ptr @g_dbus_proxy_call_sync(ptr noundef %57, ptr noundef @.str.30, ptr noundef %61, i32 noundef 0, i32 noundef -1, ptr noundef null, ptr noundef %5)
  store ptr %62, ptr %6, align 8, !tbaa !60
  %63 = load ptr, ptr %5, align 8, !tbaa !11
  %64 = call i32 @check_error(ptr noundef %63)
  %65 = icmp ne i32 %64, 0
  br i1 %65, label %66, label %68

66:                                               ; preds = %54
  %67 = load ptr, ptr %6, align 8, !tbaa !60
  call void @g_variant_unref(ptr noundef %67)
  store i32 -1, ptr %2, align 4
  store i32 1, ptr %7, align 4
  br label %79

68:                                               ; preds = %54
  %69 = load ptr, ptr %6, align 8, !tbaa !60
  %70 = call ptr @g_variant_get_child_value(ptr noundef %69, i64 noundef 0)
  store ptr %70, ptr %8, align 8, !tbaa !60
  %71 = load ptr, ptr %8, align 8, !tbaa !60
  %72 = call i32 @g_variant_get_boolean(ptr noundef %71)
  store i32 %72, ptr %10, align 4, !tbaa !62
  %73 = load ptr, ptr %8, align 8, !tbaa !60
  call void @g_variant_unref(ptr noundef %73)
  %74 = load ptr, ptr %6, align 8, !tbaa !60
  call void @g_variant_unref(ptr noundef %74)
  %75 = load i32, ptr %10, align 4, !tbaa !62
  %76 = icmp ne i32 %75, 0
  br i1 %76, label %78, label %77

77:                                               ; preds = %68
  store i32 -1, ptr %2, align 4
  store i32 1, ptr %7, align 4
  br label %79

78:                                               ; preds = %68
  store i32 0, ptr %7, align 4
  br label %79

79:                                               ; preds = %78, %77, %66
  call void @llvm.lifetime.end.p0(i64 4, ptr %10) #8
  %80 = load i32, ptr %7, align 4
  switch i32 %80, label %84 [
    i32 0, label %81
  ]

81:                                               ; preds = %79
  br label %82

82:                                               ; preds = %81, %45
  %83 = load i32, ptr %4, align 4, !tbaa !62
  store i32 %83, ptr %2, align 4
  store i32 1, ptr %7, align 4
  br label %84

84:                                               ; preds = %82, %79, %43
  call void @llvm.lifetime.end.p0(i64 4, ptr %9) #8
  call void @llvm.lifetime.end.p0(i64 8, ptr %8) #8
  br label %85

85:                                               ; preds = %84, %23
  call void @llvm.lifetime.end.p0(i64 8, ptr %6) #8
  call void @llvm.lifetime.end.p0(i64 8, ptr %5) #8
  call void @llvm.lifetime.end.p0(i64 4, ptr %4) #8
  %86 = load i32, ptr %2, align 4
  ret i32 %86
}