; Function Attrs: nounwind uwtable
define internal fastcc i32 @get_wallet_handle(ptr noundef readonly captures(none) %0) unnamed_addr #0 {
  %2 = alloca ptr, align 8
  call void @llvm.lifetime.start.p0(i64 8, ptr nonnull %2) #10
  store ptr null, ptr %2, align 8, !tbaa !6
  %3 = getelementptr inbounds nuw i8, ptr %0, i64 8
  %4 = load ptr, ptr %3, align 8, !tbaa !57
  %5 = getelementptr inbounds nuw i8, ptr %0, i64 16
  %6 = load ptr, ptr %5, align 8, !tbaa !58
  %7 = tail call ptr (ptr, ...) @g_variant_new(ptr noundef nonnull @.str.27, ptr noundef %6, i64 noundef 0, ptr noundef nonnull @.str.32) #10
  %8 = call ptr @g_dbus_proxy_call_sync(ptr noundef %4, ptr noundef nonnull @.str.26, ptr noundef %7, i32 noundef 0, i32 noundef -1, ptr noundef null, ptr noundef nonnull %2) #10
  %9 = load ptr, ptr %2, align 8, !tbaa !6
  %.not.i = icmp eq ptr %9, null
  br i1 %.not.i, label %17, label %10

10:                                               ; preds = %1
  %11 = load i32, ptr getelementptr inbounds nuw (i8, ptr @darktable, i64 8), align 8, !tbaa !16
  %12 = and i32 %11, 64
  %.not4.i = icmp eq i32 %12, 0
  br i1 %.not4.i, label %16, label %13

13:                                               ; preds = %10
  %14 = getelementptr inbounds nuw i8, ptr %9, i64 8
  %15 = load ptr, ptr %14, align 8, !tbaa !54
  call void (ptr, ...) @dt_print_ext(ptr noundef nonnull @.str.11, ptr noundef %15) #10
  br label %16

16:                                               ; preds = %13, %10
  call void @g_error_free(ptr noundef nonnull %9) #10
  call void @g_variant_unref(ptr noundef %8) #10
  br label %49

17:                                               ; preds = %1
  %18 = call ptr @g_variant_get_child_value(ptr noundef %8, i64 noundef 0) #10
  %19 = call i32 @g_variant_get_int32(ptr noundef %18) #10
  call void @g_variant_unref(ptr noundef %18) #10
  call void @g_variant_unref(ptr noundef %8) #10
  %20 = load ptr, ptr %3, align 8, !tbaa !57
  %21 = call ptr (ptr, ...) @g_variant_new(ptr noundef nonnull @.str.29, i32 noundef %19, ptr noundef nonnull @.str.31, ptr noundef nonnull @.str.32) #10
  %22 = call ptr @g_dbus_proxy_call_sync(ptr noundef %20, ptr noundef nonnull @.str.28, ptr noundef %21, i32 noundef 0, i32 noundef -1, ptr noundef null, ptr noundef nonnull %2) #10
  %23 = load ptr, ptr %2, align 8, !tbaa !6
  %.not.i30 = icmp eq ptr %23, null
  br i1 %.not.i30, label %31, label %24

24:                                               ; preds = %17
  %25 = load i32, ptr getelementptr inbounds nuw (i8, ptr @darktable, i64 8), align 8, !tbaa !16
  %26 = and i32 %25, 64
  %.not4.i31 = icmp eq i32 %26, 0
  br i1 %.not4.i31, label %30, label %27

27:                                               ; preds = %24
  %28 = getelementptr inbounds nuw i8, ptr %23, i64 8
  %29 = load ptr, ptr %28, align 8, !tbaa !54
  call void (ptr, ...) @dt_print_ext(ptr noundef nonnull @.str.11, ptr noundef %29) #10
  br label %30

30:                                               ; preds = %27, %24
  call void @g_error_free(ptr noundef nonnull %23) #10
  call void @g_variant_unref(ptr noundef %22) #10
  br label %49

31:                                               ; preds = %17
  %32 = call ptr @g_variant_get_child_value(ptr noundef %22, i64 noundef 0) #10
  %33 = call i32 @g_variant_get_boolean(ptr noundef %32) #10
  call void @g_variant_unref(ptr noundef %32) #10
  call void @g_variant_unref(ptr noundef %22) #10
  %.not27 = icmp eq i32 %33, 0
  br i1 %.not27, label %34, label %48

34:                                               ; preds = %31
  %35 = load ptr, ptr %3, align 8, !tbaa !57
  %36 = call ptr (ptr, ...) @g_variant_new(ptr noundef nonnull @.str.29, i32 noundef %19, ptr noundef nonnull @.str.31, ptr noundef nonnull @.str.32) #10
  %37 = call ptr @g_dbus_proxy_call_sync(ptr noundef %35, ptr noundef nonnull @.str.30, ptr noundef %36, i32 noundef 0, i32 noundef -1, ptr noundef null, ptr noundef nonnull %2) #10
  %38 = load ptr, ptr %2, align 8, !tbaa !6
  %.not.i34 = icmp eq ptr %38, null
  br i1 %.not.i34, label %45, label %39

39:                                               ; preds = %34
  %40 = load i32, ptr getelementptr inbounds nuw (i8, ptr @darktable, i64 8), align 8, !tbaa !16
  %41 = and i32 %40, 64
  %.not4.i35 = icmp eq i32 %41, 0
  br i1 %.not4.i35, label %.critedge, label %42

42:                                               ; preds = %39
  %43 = getelementptr inbounds nuw i8, ptr %38, i64 8
  %44 = load ptr, ptr %43, align 8, !tbaa !54
  call void (ptr, ...) @dt_print_ext(ptr noundef nonnull @.str.11, ptr noundef %44) #10
  br label %.critedge

.critedge:                                        ; preds = %42, %39
  call void @g_error_free(ptr noundef nonnull %38) #10
  call void @g_variant_unref(ptr noundef %37) #10
  br label %49

45:                                               ; preds = %34
  %46 = call ptr @g_variant_get_child_value(ptr noundef %37, i64 noundef 0) #10
  %47 = call i32 @g_variant_get_boolean(ptr noundef %46) #10
  call void @g_variant_unref(ptr noundef %46) #10
  call void @g_variant_unref(ptr noundef %37) #10
  %.not29.not = icmp eq i32 %47, 0
  br i1 %.not29.not, label %49, label %48

48:                                               ; preds = %45, %31
  br label %49

49:                                               ; preds = %30, %48, %45, %.critedge, %16
  %.025 = phi i32 [ -1, %16 ], [ -1, %30 ], [ %19, %48 ], [ -1, %45 ], [ -1, %.critedge ]
  call void @llvm.lifetime.end.p0(i64 8, ptr nonnull %2) #10
  ret i32 %.025
}